target datalayout = "e-m:e-p270:32:32-p271:32:32-p272:64:64-i64:64-i128:128-f80:128-n8:16:32:64-S128"
target triple = "x86_64-pc-linux-gnu"

%struct.bufc_pool = type { ptr, i64, i64, i64 }
%struct.buf_chunk = type { ptr, i64, i64, i64, %union.anon }
%union.anon = type { ptr }
%struct.bufq = type { ptr, ptr, ptr, ptr, i64, i64, i64, i32 }

@Curl_ccalloc = external global ptr, align 8

; Function Attrs: nounwind uwtable
define internal i32 @bufcp_take(ptr noundef %0, ptr noundef %1) #0 {
  %3 = alloca i32, align 4
  %4 = alloca ptr, align 8
  %5 = alloca ptr, align 8
  %6 = alloca ptr, align 8
  store ptr %0, ptr %4, align 8
  store ptr %1, ptr %5, align 8
  store ptr null, ptr %6, align 8
  %7 = load ptr, ptr %4, align 8
  %8 = getelementptr inbounds %struct.bufc_pool, ptr %7, i32 0, i32 0
  %9 = load ptr, ptr %8, align 8
  %10 = icmp ne ptr %9, null
  br i1 %10, label %11, label %27

11:                                               ; preds = %2
  %12 = load ptr, ptr %4, align 8
  %13 = getelementptr inbounds %struct.bufc_pool, ptr %12, i32 0, i32 0
  %14 = load ptr, ptr %13, align 8
  store ptr %14, ptr %6, align 8
  %15 = load ptr, ptr %6, align 8
  %16 = getelementptr inbounds %struct.buf_chunk, ptr %15, i32 0, i32 0
  %17 = load ptr, ptr %16, align 8
  %18 = load ptr, ptr %4, align 8
  %19 = getelementptr inbounds %struct.bufc_pool, ptr %18, i32 0, i32 0
  store ptr %17, ptr %19, align 8
  %20 = load ptr, ptr %4, align 8
  %21 = getelementptr inbounds %struct.bufc_pool, ptr %20, i32 0, i32 2
  %22 = load i64, ptr %21, align 8
  %23 = add i64 %22, -1
  store i64 %23, ptr %21, align 8
  %24 = load ptr, ptr %6, align 8
  call void @chunk_reset(ptr noundef %24)
  %25 = load ptr, ptr %6, align 8
  %26 = load ptr, ptr %5, align 8
  store ptr %25, ptr %26, align 8
  store i32 0, ptr %3, align 4
  br label %46

27:                                               ; preds = %2
  %28 = load ptr, ptr @Curl_ccalloc, align 8
  %29 = load ptr, ptr %4, align 8
  %30 = getelementptr inbounds %struct.bufc_pool, ptr %29, i32 0, i32 1
  %31 = load i64, ptr %30, align 8
  %32 = add i64 40, %31
  %33 = call ptr %28(i64 noundef 1, i64 noundef %32)
  store ptr %33, ptr %6, align 8
  %34 = load ptr, ptr %6, align 8
  %35 = icmp ne ptr %34, null
  br i1 %35, label %38, label %36

36:                                               ; preds = %27
  %37 = load ptr, ptr %5, align 8
  store ptr null, ptr %37, align 8
  store i32 27, ptr %3, align 4
  br label %46

38:                                               ; preds = %27
  %39 = load ptr, ptr %4, align 8
  %40 = getelementptr inbounds %struct.bufc_pool, ptr %39, i32 0, i32 1
  %41 = load i64, ptr %40, align 8
  %42 = load ptr, ptr %6, align 8
  %43 = getelementptr inbounds %struct.buf_chunk, ptr %42, i32 0, i32 1
  store i64 %41, ptr %43, align 8
  %44 = load ptr, ptr %6, align 8
  %45 = load ptr, ptr %5, align 8
  store ptr %44, ptr %45, align 8
  store i32 0, ptr %3, align 4
  br label %46

46:                                               ; preds = %38, %36, %11
  %47 = load i32, ptr %3, align 4
  ret i32 %47
}

; Function Attrs: nounwind uwtable
define internal void @chunk_reset(ptr noundef %0) #0 {
  %2 = alloca ptr, align 8
  store ptr %0, ptr %2, align 8
  %3 = load ptr, ptr %2, align 8
  %4 = getelementptr inbounds %struct.buf_chunk, ptr %3, i32 0, i32 0
  store ptr null, ptr %4, align 8
  %5 = load ptr, ptr %2, align 8
  %6 = getelementptr inbounds %struct.buf_chunk, ptr %5, i32 0, i32 3
  store i64 0, ptr %6, align 8
  %7 = load ptr, ptr %2, align 8
  %8 = getelementptr inbounds %struct.buf_chunk, ptr %7, i32 0, i32 2
  store i64 0, ptr %8, align 8
  ret void
}

; Function Attrs: nounwind uwtable
define internal ptr @get_spare(ptr noundef %0) #0 {
  %2 = alloca ptr, align 8
  %3 = alloca ptr, align 8
  %4 = alloca ptr, align 8
  store ptr %0, ptr %3, align 8
  store ptr null, ptr %4, align 8
  %5 = load ptr, ptr %3, align 8
  %6 = getelementptr inbounds %struct.bufq, ptr %5, i32 0, i32 2
  %7 = load ptr, ptr %6, align 8
  %8 = icmp ne ptr %7, null
  br i1 %8, label %9, label %20

9:                                                ; preds = %1
  %10 = load ptr, ptr %3, align 8
  %11 = getelementptr inbounds %struct.bufq, ptr %10, i32 0, i32 2
  %12 = load ptr, ptr %11, align 8
  store ptr %12, ptr %4, align 8
  %13 = load ptr, ptr %4, align 8
  %14 = getelementptr inbounds %struct.buf_chunk, ptr %13, i32 0, i32 0
  %15 = load ptr, ptr %14, align 8
  %16 = load ptr, ptr %3, align 8
  %17 = getelementptr inbounds %struct.bufq, ptr %16, i32 0, i32 2
  store ptr %15, ptr %17, align 8
  %18 = load ptr, ptr %4, align 8
  call void @chunk_reset(ptr noundef %18)
  %19 = load ptr, ptr %4, align 8
  store ptr %19, ptr %2, align 8
  br label %74

20:                                               ; preds = %1
  %21 = load ptr, ptr %3, align 8
  %22 = getelementptr inbounds %struct.bufq, ptr %21, i32 0, i32 4
  %23 = load i64, ptr %22, align 8
  %24 = load ptr, ptr %3, align 8
  %25 = getelementptr inbounds %struct.bufq, ptr %24, i32 0, i32 5
  %26 = load i64, ptr %25, align 8
  %27 = icmp uge i64 %23, %26
  br i1 %27, label %28, label %35

28:                                               ; preds = %20
  %29 = load ptr, ptr %3, align 8
  %30 = getelementptr inbounds %struct.bufq, ptr %29, i32 0, i32 7
  %31 = load i32, ptr %30, align 8
  %32 = and i32 %31, 1
  %33 = icmp ne i32 %32, 0
  br i1 %33, label %35, label %34

34:                                               ; preds = %28
  store ptr null, ptr %2, align 8
  br label %74

35:                                               ; preds = %28, %20
  %36 = load ptr, ptr %3, align 8
  %37 = getelementptr inbounds %struct.bufq, ptr %36, i32 0, i32 3
  %38 = load ptr, ptr %37, align 8
  %39 = icmp ne ptr %38, null
  br i1 %39, label %40, label %53

40:                                               ; preds = %35
  %41 = load ptr, ptr %3, align 8
  %42 = getelementptr inbounds %struct.bufq, ptr %41, i32 0, i32 3
  %43 = load ptr, ptr %42, align 8
  %44 = call i32 @bufcp_take(ptr noundef %43, ptr noundef %4)
  %45 = icmp ne i32 %44, 0
  br i1 %45, label %46, label %47

46:                                               ; preds = %40
  store ptr null, ptr %2, align 8
  br label %74

47:                                               ; preds = %40
  %48 = load ptr, ptr %3, align 8
  %49 = getelementptr inbounds %struct.bufq, ptr %48, i32 0, i32 4
  %50 = load i64, ptr %49, align 8
  %51 = add i64 %50, 1
  store i64 %51, ptr %49, align 8
  %52 = load ptr, ptr %4, align 8
  store ptr %52, ptr %2, align 8
  br label %74

53:                                               ; preds = %35
  %54 = load ptr, ptr @Curl_ccalloc, align 8
  %55 = load ptr, ptr %3, align 8
  %56 = getelementptr inbounds %struct.bufq, ptr %55, i32 0, i32 6
  %57 = load i64, ptr %56, align 8
  %58 = add i64 40, %57
  %59 = call ptr %54(i64 noundef 1, i64 noundef %58)
  store ptr %59, ptr %4, align 8
  %60 = load ptr, ptr %4, align 8
  %61 = icmp ne ptr %60, null
  br i1 %61, label %63, label %62

62:                                               ; preds = %53
  store ptr null, ptr %2, align 8
  br label %74

63:                                               ; preds = %53
  %64 = load ptr, ptr %3, align 8
  %65 = getelementptr inbounds %struct.bufq, ptr %64, i32 0, i32 6
  %66 = load i64, ptr %65, align 8
  %67 = load ptr, ptr %4, align 8
  %68 = getelementptr inbounds %struct.buf_chunk, ptr %67, i32 0, i32 1
  store i64 %66, ptr %68, align 8
  %69 = load ptr, ptr %3, align 8
  %70 = getelementptr inbounds %struct.bufq, ptr %69, i32 0, i32 4
  %71 = load i64, ptr %70, align 8
  %72 = add i64 %71, 1
  store i64 %72, ptr %70, align 8
  %73 = load ptr, ptr %4, align 8
  store ptr %73, ptr %2, align 8
  br label %74

74:                                               ; preds = %63, %62, %47, %46, %34, %9
  %75 = load ptr, ptr %2, align 8
  ret ptr %75
}

; Function Attrs: nounwind uwtable
define internal zeroext i1 @chunk_is_full(ptr noundef %0) #0 {
  %2 = alloca ptr, align 8
  store ptr %0, ptr %2, align 8
  %3 = load ptr, ptr %2, align 8
  %4 = getelementptr inbounds %struct.buf_chunk, ptr %3, i32 0, i32 3
  %5 = load i64, ptr %4, align 8
  %6 = load ptr, ptr %2, align 8
  %7 = getelementptr inbounds %struct.buf_chunk, ptr %6, i32 0, i32 1
  %8 = load i64, ptr %7, align 8
  %9 = icmp uge i64 %5, %8
  ret i1 %9
}

; Function Attrs: nounwind uwtable
define internal ptr @get_non_full_tail(ptr noundef %0) #0 {
  %2 = alloca ptr, align 8
  %3 = alloca ptr, align 8
  %4 = alloca ptr, align 8
  store ptr %0, ptr %3, align 8
  %5 = load ptr, ptr %3, align 8
  %6 = getelementptr inbounds %struct.bufq, ptr %5, i32 0, i32 1
  %7 = load ptr, ptr %6, align 8
  %8 = icmp ne ptr %7, null
  br i1 %8, label %9, label %18

9:                                                ; preds = %1
  %10 = load ptr, ptr %3, align 8
  %11 = getelementptr inbounds %struct.bufq, ptr %10, i32 0, i32 1
  %12 = load ptr, ptr %11, align 8
  %13 = call zeroext i1 @chunk_is_full(ptr noundef %12)
  br i1 %13, label %18, label %14

14:                                               ; preds = %9
  %15 = load ptr, ptr %3, align 8
  %16 = getelementptr inbounds %struct.bufq, ptr %15, i32 0, i32 1
  %17 = load ptr, ptr %16, align 8
  store ptr %17, ptr %2, align 8
  br label %48

18:                                               ; preds = %9, %1
  %19 = load ptr, ptr %3, align 8
  %20 = call ptr @get_spare(ptr noundef %19)
  store ptr %20, ptr %4, align 8
  %21 = load ptr, ptr %4, align 8
  %22 = icmp ne ptr %21, null
  br i1 %22, label %23, label %46

23:                                               ; preds = %18
  %24 = load ptr, ptr %3, align 8
  %25 = getelementptr inbounds %struct.bufq, ptr %24, i32 0, i32 1
  %26 = load ptr, ptr %25, align 8
  %27 = icmp ne ptr %26, null
  br i1 %27, label %28, label %37

28:                                               ; preds = %23
  %29 = load ptr, ptr %4, align 8
  %30 = load ptr, ptr %3, align 8
  %31 = getelementptr inbounds %struct.bufq, ptr %30, i32 0, i32 1
  %32 = load ptr, ptr %31, align 8
  %33 = getelementptr inbounds %struct.buf_chunk, ptr %32, i32 0, i32 0
  store ptr %29, ptr %33, align 8
  %34 = load ptr, ptr %4, align 8
  %35 = load ptr, ptr %3, align 8
  %36 = getelementptr inbounds %struct.bufq, ptr %35, i32 0, i32 1
  store ptr %34, ptr %36, align 8
  br label %45

37:                                               ; preds = %23
  br label %38

38:                                               ; preds = %37
  br label %39

39:                                               ; preds = %38
  %40 = load ptr, ptr %4, align 8
  %41 = load ptr, ptr %3, align 8
  %42 = getelementptr inbounds %struct.bufq, ptr %41, i32 0, i32 1
  store ptr %40, ptr %42, align 8
  %43 = load ptr, ptr %3, align 8
  %44 = getelementptr inbounds %struct.bufq, ptr %43, i32 0, i32 0
  store ptr %40, ptr %44, align 8
  br label %45

45:                                               ; preds = %39, %28
  br label %46

46:                                               ; preds = %45, %18
  %47 = load ptr, ptr %4, align 8
  store ptr %47, ptr %2, align 8
  br label %48

48:                                               ; preds = %46, %14
  %49 = load ptr, ptr %2, align 8
  ret ptr %49
}