; Function Attrs: nounwind uwtable
define internal fastcc ptr @get_non_full_tail(ptr noundef captures(none) %0) unnamed_addr #2 {
  %2 = getelementptr inbounds nuw i8, ptr %0, i64 8
  %3 = load ptr, ptr %2, align 8
  %.not = icmp eq ptr %3, null
  br i1 %.not, label %7, label %4

4:                                                ; preds = %1
  %5 = getelementptr i8, ptr %3, i64 8
  %.val = load i64, ptr %5, align 8
  %6 = getelementptr i8, ptr %3, i64 24
  %.val20 = load i64, ptr %6, align 8
  %.not23 = icmp ult i64 %.val20, %.val
  br i1 %.not23, label %get_spare.exit.thread, label %7

7:                                                ; preds = %4, %1
  %8 = getelementptr inbounds nuw i8, ptr %0, i64 16
  %9 = load ptr, ptr %8, align 8
  %.not.i = icmp eq ptr %9, null
  br i1 %.not.i, label %13, label %10

10:                                               ; preds = %7
  %11 = load ptr, ptr %9, align 8
  store ptr %11, ptr %8, align 8
  store ptr null, ptr %9, align 8
  %12 = getelementptr inbounds nuw i8, ptr %9, i64 16
  tail call void @llvm.memset.p0.i64(ptr noundef nonnull align 8 dereferenceable(16) %12, i8 0, i64 16, i1 false)
  br label %get_spare.exit

13:                                               ; preds = %7
  %14 = getelementptr inbounds nuw i8, ptr %0, i64 32
  %15 = load i64, ptr %14, align 8
  %16 = getelementptr inbounds nuw i8, ptr %0, i64 40
  %17 = load i64, ptr %16, align 8
  %.not16.i = icmp ult i64 %15, %17
  br i1 %.not16.i, label %22, label %18

18:                                               ; preds = %13
  %19 = getelementptr inbounds nuw i8, ptr %0, i64 56
  %20 = load i32, ptr %19, align 8
  %21 = and i32 %20, 1
  %.not17.i = icmp eq i32 %21, 0
  br i1 %.not17.i, label %get_spare.exit.thread, label %22

22:                                               ; preds = %18, %13
  %23 = getelementptr inbounds nuw i8, ptr %0, i64 24
  %24 = load ptr, ptr %23, align 8
  %.not18.i = icmp eq ptr %24, null
  br i1 %.not18.i, label %45, label %25

25:                                               ; preds = %22
  %26 = load ptr, ptr %24, align 8
  %.not.i.i = icmp eq ptr %26, null
  br i1 %.not.i.i, label %33, label %27

27:                                               ; preds = %25
  %28 = load ptr, ptr %26, align 8
  store ptr %28, ptr %24, align 8
  %29 = getelementptr inbounds nuw i8, ptr %24, i64 16
  %30 = load i64, ptr %29, align 8
  %31 = add i64 %30, -1
  store i64 %31, ptr %29, align 8
  store ptr null, ptr %26, align 8
  %32 = getelementptr inbounds nuw i8, ptr %26, i64 16
  tail call void @llvm.memset.p0.i64(ptr noundef nonnull align 8 dereferenceable(16) %32, i8 0, i64 16, i1 false)
  br label %42

33:                                               ; preds = %25
  %34 = load ptr, ptr @Curl_ccalloc, align 8
  %35 = getelementptr inbounds nuw i8, ptr %24, i64 8
  %36 = load i64, ptr %35, align 8
  %37 = add i64 %36, 40
  %38 = tail call ptr %34(i64 noundef 1, i64 noundef %37) #11
  %.not17.i.i = icmp eq ptr %38, null
  br i1 %.not17.i.i, label %get_spare.exit.thread, label %39

39:                                               ; preds = %33
  %40 = load i64, ptr %35, align 8
  %41 = getelementptr inbounds nuw i8, ptr %38, i64 8
  store i64 %40, ptr %41, align 8
  br label %42

42:                                               ; preds = %39, %27
  %.sink.i.ph.i = phi ptr [ %26, %27 ], [ %38, %39 ]
  %43 = load i64, ptr %14, align 8
  %44 = add i64 %43, 1
  store i64 %44, ptr %14, align 8
  br label %get_spare.exit

45:                                               ; preds = %22
  %46 = load ptr, ptr @Curl_ccalloc, align 8
  %47 = getelementptr inbounds nuw i8, ptr %0, i64 48
  %48 = load i64, ptr %47, align 8
  %49 = add i64 %48, 40
  %50 = tail call ptr %46(i64 noundef 1, i64 noundef %49) #11
  %.not19.i = icmp eq ptr %50, null
  br i1 %.not19.i, label %get_spare.exit.thread, label %51

51:                                               ; preds = %45
  %52 = load i64, ptr %47, align 8
  %53 = getelementptr inbounds nuw i8, ptr %50, i64 8
  store i64 %52, ptr %53, align 8
  %54 = load i64, ptr %14, align 8
  %55 = add i64 %54, 1
  store i64 %55, ptr %14, align 8
  br label %get_spare.exit

get_spare.exit:                                   ; preds = %51, %42, %10
  %.0.i = phi ptr [ %9, %10 ], [ %.sink.i.ph.i, %42 ], [ %50, %51 ]
  %56 = load ptr, ptr %2, align 8
  %.not19 = icmp eq ptr %56, null
  br i1 %.not19, label %58, label %57

57:                                               ; preds = %get_spare.exit
  store ptr %.0.i, ptr %56, align 8
  store ptr %.0.i, ptr %2, align 8
  br label %get_spare.exit.thread

58:                                               ; preds = %get_spare.exit
  store ptr %.0.i, ptr %2, align 8
  store ptr %.0.i, ptr %0, align 8
  br label %get_spare.exit.thread

get_spare.exit.thread:                            ; preds = %33, %45, %18, %4, %58, %57
  %.0 = phi ptr [ %.0.i, %57 ], [ %.0.i, %58 ], [ %3, %4 ], [ null, %18 ], [ null, %45 ], [ null, %33 ]
  ret ptr %.0
}